target datalayout = "e-m:e-p270:32:32-p271:32:32-p272:64:64-i64:64-i128:128-f80:128-n8:16:32:64-S128"
target triple = "x86_64-pc-linux-gnu"

; Function Attrs: inlinehint nounwind willreturn memory(none) uwtable
define internal i32 @av_tolower(i32 noundef %0) #1 {
  %2 = alloca i32, align 4
  store i32 %0, ptr %2, align 4, !tbaa !16
  %3 = load i32, ptr %2, align 4, !tbaa !16
  %4 = icmp sge i32 %3, 65
  br i1 %4, label %5, label %11

5:                                                ; preds = %1
  %6 = load i32, ptr %2, align 4, !tbaa !16
  %7 = icmp sle i32 %6, 90
  br i1 %7, label %8, label %11

8:                                                ; preds = %5
  %9 = load i32, ptr %2, align 4, !tbaa !16
  %10 = xor i32 %9, 32
  store i32 %10, ptr %2, align 4, !tbaa !16
  br label %11

11:                                               ; preds = %8, %5, %1
  %12 = load i32, ptr %2, align 4, !tbaa !16
  ret i32 %12
}

; Function Attrs: nounwind uwtable
define i32 @av_strncasecmp(ptr noundef %0, ptr noundef %1, i64 noundef %2) #0 {
  %4 = alloca i32, align 4
  %5 = alloca ptr, align 8
  %6 = alloca ptr, align 8
  %7 = alloca i64, align 8
  %8 = alloca i8, align 1
  %9 = alloca i8, align 1
  %10 = alloca i32, align 4
  store ptr %0, ptr %5, align 8, !tbaa !4
  store ptr %1, ptr %6, align 8, !tbaa !4
  store i64 %2, ptr %7, align 8, !tbaa !19
  call void @llvm.lifetime.start.p0(i64 1, ptr %8) #11
  call void @llvm.lifetime.start.p0(i64 1, ptr %9) #11
  %11 = load i64, ptr %7, align 8, !tbaa !19
  %12 = icmp ule i64 %11, 0
  br i1 %12, label %13, label %14

13:                                               ; preds = %3
  store i32 0, ptr %4, align 4
  store i32 1, ptr %10, align 4
  br label %50

14:                                               ; preds = %3
  br label %15

15:                                               ; preds = %42, %14
  %16 = load ptr, ptr %5, align 8, !tbaa !4
  %17 = getelementptr inbounds nuw i8, ptr %16, i32 1
  store ptr %17, ptr %5, align 8, !tbaa !4
  %18 = load i8, ptr %16, align 1, !tbaa !12
  %19 = sext i8 %18 to i32
  %20 = call i32 @av_tolower(i32 noundef %19) #10
  %21 = trunc i32 %20 to i8
  store i8 %21, ptr %8, align 1, !tbaa !12
  %22 = load ptr, ptr %6, align 8, !tbaa !4
  %23 = getelementptr inbounds nuw i8, ptr %22, i32 1
  store ptr %23, ptr %6, align 8, !tbaa !4
  %24 = load i8, ptr %22, align 1, !tbaa !12
  %25 = sext i8 %24 to i32
  %26 = call i32 @av_tolower(i32 noundef %25) #10
  %27 = trunc i32 %26 to i8
  store i8 %27, ptr %9, align 1, !tbaa !12
  br label %28

28:                                               ; preds = %15
  %29 = load i64, ptr %7, align 8, !tbaa !19
  %30 = add i64 %29, -1
  store i64 %30, ptr %7, align 8, !tbaa !19
  %31 = icmp ne i64 %30, 0
  br i1 %31, label %32, label %42

32:                                               ; preds = %28
  %33 = load i8, ptr %8, align 1, !tbaa !12
  %34 = zext i8 %33 to i32
  %35 = icmp ne i32 %34, 0
  br i1 %35, label %36, label %42

36:                                               ; preds = %32
  %37 = load i8, ptr %8, align 1, !tbaa !12
  %38 = zext i8 %37 to i32
  %39 = load i8, ptr %9, align 1, !tbaa !12
  %40 = zext i8 %39 to i32
  %41 = icmp eq i32 %38, %40
  br label %42

42:                                               ; preds = %36, %32, %28
  %43 = phi i1 [ false, %32 ], [ false, %28 ], [ %41, %36 ]
  br i1 %43, label %15, label %44, !llvm.loop !27

44:                                               ; preds = %42
  %45 = load i8, ptr %8, align 1, !tbaa !12
  %46 = zext i8 %45 to i32
  %47 = load i8, ptr %9, align 1, !tbaa !12
  %48 = zext i8 %47 to i32
  %49 = sub nsw i32 %46, %48
  store i32 %49, ptr %4, align 4
  store i32 1, ptr %10, align 4
  br label %50

50:                                               ; preds = %44, %13
  call void @llvm.lifetime.end.p0(i64 1, ptr %9) #11
  call void @llvm.lifetime.end.p0(i64 1, ptr %8) #11
  %51 = load i32, ptr %4, align 4
  ret i32 %51
}