; Function Attrs: nofree norecurse nosync nounwind memory(argmem: read) uwtable
define range(i32 -255, 256) i32 @av_strncasecmp(ptr noundef readonly captures(none) %0, ptr noundef readonly captures(none) %1, i64 noundef %2) local_unnamed_addr #1 {
  %4 = icmp eq i64 %2, 0
  br i1 %4, label %22, label %.preheader

.preheader:                                       ; preds = %3, %.preheader
  %.013 = phi ptr [ %17, %.preheader ], [ %1, %3 ]
  %.012 = phi i64 [ %13, %.preheader ], [ %2, %3 ]
  %.011 = phi ptr [ %18, %.preheader ], [ %0, %3 ]
  %5 = load i8, ptr %.011, align 1, !tbaa !4
  %6 = sext i8 %5 to i32
  %7 = add nsw i32 %6, -65
  %or.cond.i = icmp ult i32 %7, 26
  %8 = or disjoint i32 %6, 32
  %spec.select.i = select i1 %or.cond.i, i32 %8, i32 %6
  %9 = load i8, ptr %.013, align 1, !tbaa !4
  %10 = sext i8 %9 to i32
  %11 = add nsw i32 %10, -65
  %or.cond.i21 = icmp ult i32 %11, 26
  %12 = or disjoint i32 %10, 32
  %spec.select.i22 = select i1 %or.cond.i21, i32 %12, i32 %10
  %13 = add i64 %.012, -1
  %14 = icmp ne i64 %13, 0
  %15 = and i32 %spec.select.i, 255
  %16 = icmp ne i32 %15, 0
  %or.cond = select i1 %14, i1 %16, i1 false
  %17 = getelementptr inbounds nuw i8, ptr %.013, i64 1
  %18 = getelementptr inbounds nuw i8, ptr %.011, i64 1
  %19 = and i32 %spec.select.i22, 255
  %20 = icmp eq i32 %15, %19
  %or.cond20 = select i1 %or.cond, i1 %20, i1 false
  br i1 %or.cond20, label %.preheader, label %.critedge, !llvm.loop !20

.critedge:                                        ; preds = %.preheader
  %21 = sub nsw i32 %15, %19
  br label %22

22:                                               ; preds = %3, %.critedge
  %.0 = phi i32 [ %21, %.critedge ], [ 0, %3 ]
  ret i32 %.0
}